target datalayout = "e-m:e-p270:32:32-p271:32:32-p272:64:64-i64:64-i128:128-f80:128-n8:16:32:64-S128"
target triple = "x86_64-pc-linux-gnu"

%struct.dsa_area_control = type { %struct.dsa_segment_header, i32, [1024 x i32], [16 x i64], [38 x %struct.dsa_area_pool], i64, i64, i64, i64, i64, i32, i8, i64, i32, %struct.LWLock }
%struct.dsa_segment_header = type { i32, i64, i64, i64, i64, i64, i8 }
%struct.dsa_area_pool = type { %struct.LWLock, [4 x i64] }
%struct.LWLock = type { i16, %struct.pg_atomic_uint32, %struct.proclist_head }
%struct.pg_atomic_uint32 = type { i32 }
%struct.proclist_head = type { i32, i32 }
%struct.dsa_area = type { ptr, ptr, [1024 x %struct.dsa_segment_map], i64, i64 }
%struct.dsa_segment_map = type { ptr, ptr, ptr, ptr, ptr }
%struct.dsa_area_span = type { i64, i64, i64, i64, i64, i16, i16, i16, i16, i16, i16 }

; Function Attrs: nounwind uwtable
define internal void @check_for_freed_segments(ptr noundef %0) #0 {
  %2 = alloca ptr, align 8
  %3 = alloca i64, align 8
  store ptr %0, ptr %2, align 8
  call void @llvm.lifetime.start.p0(i64 8, ptr %3) #8
  call void asm sideeffect "", "~{memory},~{dirflag},~{fpsr},~{flags}"() #8, !srcloc !13
  %4 = load ptr, ptr %2, align 8
  %5 = getelementptr inbounds nuw %struct.dsa_area, ptr %4, i32 0, i32 0
  %6 = load ptr, ptr %5, align 8
  %7 = getelementptr inbounds nuw %struct.dsa_area_control, ptr %6, i32 0, i32 12
  %8 = load i64, ptr %7, align 8
  store i64 %8, ptr %3, align 8
  %9 = load ptr, ptr %2, align 8
  %10 = getelementptr inbounds nuw %struct.dsa_area, ptr %9, i32 0, i32 4
  %11 = load i64, ptr %10, align 8
  %12 = load i64, ptr %3, align 8
  %13 = icmp ne i64 %11, %12
  %14 = zext i1 %13 to i32
  %15 = icmp ne i32 %14, 0
  %16 = zext i1 %15 to i32
  %17 = sext i32 %16 to i64
  %18 = call i64 @llvm.expect.i64(i64 %17, i64 0)
  %19 = icmp ne i64 %18, 0
  br i1 %19, label %20, label %31

20:                                               ; preds = %1
  %21 = load ptr, ptr %2, align 8
  %22 = getelementptr inbounds nuw %struct.dsa_area, ptr %21, i32 0, i32 0
  %23 = load ptr, ptr %22, align 8
  %24 = getelementptr inbounds nuw %struct.dsa_area_control, ptr %23, i32 0, i32 14
  %25 = call zeroext i1 @LWLockAcquire(ptr noundef %24, i32 noundef 0)
  %26 = load ptr, ptr %2, align 8
  call void @check_for_freed_segments_locked(ptr noundef %26)
  %27 = load ptr, ptr %2, align 8
  %28 = getelementptr inbounds nuw %struct.dsa_area, ptr %27, i32 0, i32 0
  %29 = load ptr, ptr %28, align 8
  %30 = getelementptr inbounds nuw %struct.dsa_area_control, ptr %29, i32 0, i32 14
  call void @LWLockRelease(ptr noundef %30)
  br label %31

31:                                               ; preds = %20, %1
  call void @llvm.lifetime.end.p0(i64 8, ptr %3) #8
  ret void
}

; Function Attrs: nounwind uwtable
define dso_local ptr @dsa_get_address(ptr noundef %0, i64 noundef %1) #0 {
  %3 = alloca ptr, align 8
  %4 = alloca ptr, align 8
  %5 = alloca i64, align 8
  %6 = alloca i64, align 8
  %7 = alloca i64, align 8
  %8 = alloca i32, align 4
  store ptr %0, ptr %4, align 8
  store i64 %1, ptr %5, align 8
  call void @llvm.lifetime.start.p0(i64 8, ptr %6) #8
  call void @llvm.lifetime.start.p0(i64 8, ptr %7) #8
  %9 = load i64, ptr %5, align 8
  %10 = icmp ne i64 %9, 0
  br i1 %10, label %12, label %11

11:                                               ; preds = %2
  store ptr null, ptr %3, align 8
  store i32 1, ptr %8, align 4
  br label %44

12:                                               ; preds = %2
  %13 = load ptr, ptr %4, align 8
  call void @check_for_freed_segments(ptr noundef %13)
  %14 = load i64, ptr %5, align 8
  %15 = lshr i64 %14, 40
  store i64 %15, ptr %6, align 8
  %16 = load i64, ptr %5, align 8
  %17 = and i64 %16, 1099511627775
  store i64 %17, ptr %7, align 8
  %18 = load ptr, ptr %4, align 8
  %19 = getelementptr inbounds nuw %struct.dsa_area, ptr %18, i32 0, i32 2
  %20 = load i64, ptr %6, align 8
  %21 = getelementptr inbounds nuw [1024 x %struct.dsa_segment_map], ptr %19, i64 0, i64 %20
  %22 = getelementptr inbounds nuw %struct.dsa_segment_map, ptr %21, i32 0, i32 1
  %23 = load ptr, ptr %22, align 8
  %24 = icmp eq ptr %23, null
  %25 = zext i1 %24 to i32
  %26 = icmp ne i32 %25, 0
  %27 = zext i1 %26 to i32
  %28 = sext i32 %27 to i64
  %29 = call i64 @llvm.expect.i64(i64 %28, i64 0)
  %30 = icmp ne i64 %29, 0
  br i1 %30, label %31, label %35

31:                                               ; preds = %12
  %32 = load ptr, ptr %4, align 8
  %33 = load i64, ptr %6, align 8
  %34 = call ptr @get_segment_by_index(ptr noundef %32, i64 noundef %33)
  br label %35

35:                                               ; preds = %31, %12
  %36 = load ptr, ptr %4, align 8
  %37 = getelementptr inbounds nuw %struct.dsa_area, ptr %36, i32 0, i32 2
  %38 = load i64, ptr %6, align 8
  %39 = getelementptr inbounds nuw [1024 x %struct.dsa_segment_map], ptr %37, i64 0, i64 %38
  %40 = getelementptr inbounds nuw %struct.dsa_segment_map, ptr %39, i32 0, i32 1
  %41 = load ptr, ptr %40, align 8
  %42 = load i64, ptr %7, align 8
  %43 = getelementptr inbounds nuw i8, ptr %41, i64 %42
  store ptr %43, ptr %3, align 8
  store i32 1, ptr %8, align 4
  br label %44

44:                                               ; preds = %35, %11
  call void @llvm.lifetime.end.p0(i64 8, ptr %7) #8
  call void @llvm.lifetime.end.p0(i64 8, ptr %6) #8
  %45 = load ptr, ptr %3, align 8
  ret ptr %45
}

; Function Attrs: nounwind uwtable
define internal void @unlink_span(ptr noundef %0, ptr noundef %1) #0 {
  %3 = alloca ptr, align 8
  %4 = alloca ptr, align 8
  %5 = alloca ptr, align 8
  %6 = alloca ptr, align 8
  %7 = alloca ptr, align 8
  store ptr %0, ptr %3, align 8
  store ptr %1, ptr %4, align 8
  %8 = load ptr, ptr %4, align 8
  %9 = getelementptr inbounds nuw %struct.dsa_area_span, ptr %8, i32 0, i32 2
  %10 = load i64, ptr %9, align 8
  %11 = icmp ne i64 %10, 0
  br i1 %11, label %12, label %23

12:                                               ; preds = %2
  call void @llvm.lifetime.start.p0(i64 8, ptr %5) #8
  %13 = load ptr, ptr %3, align 8
  %14 = load ptr, ptr %4, align 8
  %15 = getelementptr inbounds nuw %struct.dsa_area_span, ptr %14, i32 0, i32 2
  %16 = load i64, ptr %15, align 8
  %17 = call ptr @dsa_get_address(ptr noundef %13, i64 noundef %16)
  store ptr %17, ptr %5, align 8
  %18 = load ptr, ptr %4, align 8
  %19 = getelementptr inbounds nuw %struct.dsa_area_span, ptr %18, i32 0, i32 1
  %20 = load i64, ptr %19, align 8
  %21 = load ptr, ptr %5, align 8
  %22 = getelementptr inbounds nuw %struct.dsa_area_span, ptr %21, i32 0, i32 1
  store i64 %20, ptr %22, align 8
  call void @llvm.lifetime.end.p0(i64 8, ptr %5) #8
  br label %23

23:                                               ; preds = %12, %2
  %24 = load ptr, ptr %4, align 8
  %25 = getelementptr inbounds nuw %struct.dsa_area_span, ptr %24, i32 0, i32 1
  %26 = load i64, ptr %25, align 8
  %27 = icmp ne i64 %26, 0
  br i1 %27, label %28, label %39

28:                                               ; preds = %23
  call void @llvm.lifetime.start.p0(i64 8, ptr %6) #8
  %29 = load ptr, ptr %3, align 8
  %30 = load ptr, ptr %4, align 8
  %31 = getelementptr inbounds nuw %struct.dsa_area_span, ptr %30, i32 0, i32 1
  %32 = load i64, ptr %31, align 8
  %33 = call ptr @dsa_get_address(ptr noundef %29, i64 noundef %32)
  store ptr %33, ptr %6, align 8
  %34 = load ptr, ptr %4, align 8
  %35 = getelementptr inbounds nuw %struct.dsa_area_span, ptr %34, i32 0, i32 2
  %36 = load i64, ptr %35, align 8
  %37 = load ptr, ptr %6, align 8
  %38 = getelementptr inbounds nuw %struct.dsa_area_span, ptr %37, i32 0, i32 2
  store i64 %36, ptr %38, align 8
  call void @llvm.lifetime.end.p0(i64 8, ptr %6) #8
  br label %55

39:                                               ; preds = %23
  call void @llvm.lifetime.start.p0(i64 8, ptr %7) #8
  %40 = load ptr, ptr %3, align 8
  %41 = load ptr, ptr %4, align 8
  %42 = getelementptr inbounds nuw %struct.dsa_area_span, ptr %41, i32 0, i32 0
  %43 = load i64, ptr %42, align 8
  %44 = call ptr @dsa_get_address(ptr noundef %40, i64 noundef %43)
  store ptr %44, ptr %7, align 8
  %45 = load ptr, ptr %4, align 8
  %46 = getelementptr inbounds nuw %struct.dsa_area_span, ptr %45, i32 0, i32 2
  %47 = load i64, ptr %46, align 8
  %48 = load ptr, ptr %7, align 8
  %49 = getelementptr inbounds nuw %struct.dsa_area_pool, ptr %48, i32 0, i32 1
  %50 = load ptr, ptr %4, align 8
  %51 = getelementptr inbounds nuw %struct.dsa_area_span, ptr %50, i32 0, i32 10
  %52 = load i16, ptr %51, align 2
  %53 = zext i16 %52 to i64
  %54 = getelementptr inbounds nuw [4 x i64], ptr %49, i64 0, i64 %53
  store i64 %47, ptr %54, align 8
  call void @llvm.lifetime.end.p0(i64 8, ptr %7) #8
  br label %55

55:                                               ; preds = %39, %28
  ret void
}