; Function Attrs: nounwind uwtable
define internal fastcc void @unlink_span(ptr noundef captures(none) %0, ptr noundef readonly captures(none) %1) unnamed_addr #0 {
  %3 = getelementptr inbounds nuw i8, ptr %1, i64 16
  %4 = load i64, ptr %3, align 8
  %.not = icmp eq i64 %4, 0
  br i1 %.not, label %._crit_edge, label %5

._crit_edge:                                      ; preds = %2
  %.phi.trans.insert = getelementptr inbounds nuw i8, ptr %1, i64 8
  %.pre = load i64, ptr %.phi.trans.insert, align 8
  br label %29

5:                                                ; preds = %2
  tail call void asm sideeffect "", "~{memory},~{dirflag},~{fpsr},~{flags}"() #11, !srcloc !9
  %6 = load ptr, ptr %0, align 8
  %7 = getelementptr inbounds nuw i8, ptr %6, i64 6160
  %8 = load i64, ptr %7, align 8
  %9 = getelementptr inbounds nuw i8, ptr %0, i64 40984
  %10 = load i64, ptr %9, align 8
  %.not.i.i = icmp eq i64 %10, %8
  br i1 %.not.i.i, label %check_for_freed_segments.exit.i, label %11, !prof !10

11:                                               ; preds = %5
  %12 = getelementptr inbounds nuw i8, ptr %6, i64 6172
  %13 = tail call zeroext i1 @LWLockAcquire(ptr noundef nonnull %12, i32 noundef 0) #11
  tail call fastcc void @check_for_freed_segments_locked(ptr noundef nonnull %0)
  %14 = load ptr, ptr %0, align 8
  %15 = getelementptr inbounds nuw i8, ptr %14, i64 6172
  tail call void @LWLockRelease(ptr noundef nonnull %15) #11
  br label %check_for_freed_segments.exit.i

check_for_freed_segments.exit.i:                  ; preds = %11, %5
  %16 = lshr i64 %4, 40
  %17 = and i64 %4, 1099511627775
  %.idx.i = mul nuw nsw i64 %16, 40
  %18 = getelementptr i8, ptr %0, i64 24
  %19 = getelementptr i8, ptr %18, i64 %.idx.i
  %20 = load ptr, ptr %19, align 8
  %21 = icmp eq ptr %20, null
  br i1 %21, label %22, label %dsa_get_address.exit, !prof !11

22:                                               ; preds = %check_for_freed_segments.exit.i
  %23 = tail call fastcc ptr @get_segment_by_index(ptr noundef nonnull %0, i64 noundef %16)
  %.pre.i = load ptr, ptr %19, align 8
  br label %dsa_get_address.exit

dsa_get_address.exit:                             ; preds = %check_for_freed_segments.exit.i, %22
  %24 = phi ptr [ %.pre.i, %22 ], [ %20, %check_for_freed_segments.exit.i ]
  %25 = getelementptr inbounds nuw i8, ptr %24, i64 %17
  %26 = getelementptr inbounds nuw i8, ptr %1, i64 8
  %27 = load i64, ptr %26, align 8
  %28 = getelementptr inbounds nuw i8, ptr %25, i64 8
  store i64 %27, ptr %28, align 8
  br label %29

29:                                               ; preds = %._crit_edge, %dsa_get_address.exit
  %30 = phi i64 [ %.pre, %._crit_edge ], [ %27, %dsa_get_address.exit ]
  %.not16 = icmp eq i64 %30, 0
  br i1 %.not16, label %54, label %31

31:                                               ; preds = %29
  tail call void asm sideeffect "", "~{memory},~{dirflag},~{fpsr},~{flags}"() #11, !srcloc !9
  %32 = load ptr, ptr %0, align 8
  %33 = getelementptr inbounds nuw i8, ptr %32, i64 6160
  %34 = load i64, ptr %33, align 8
  %35 = getelementptr inbounds nuw i8, ptr %0, i64 40984
  %36 = load i64, ptr %35, align 8
  %.not.i.i18 = icmp eq i64 %36, %34
  br i1 %.not.i.i18, label %check_for_freed_segments.exit.i19, label %37, !prof !10

37:                                               ; preds = %31
  %38 = getelementptr inbounds nuw i8, ptr %32, i64 6172
  %39 = tail call zeroext i1 @LWLockAcquire(ptr noundef nonnull %38, i32 noundef 0) #11
  tail call fastcc void @check_for_freed_segments_locked(ptr noundef nonnull %0)
  %40 = load ptr, ptr %0, align 8
  %41 = getelementptr inbounds nuw i8, ptr %40, i64 6172
  tail call void @LWLockRelease(ptr noundef nonnull %41) #11
  br label %check_for_freed_segments.exit.i19

check_for_freed_segments.exit.i19:                ; preds = %37, %31
  %42 = lshr i64 %30, 40
  %43 = and i64 %30, 1099511627775
  %.idx.i20 = mul nuw nsw i64 %42, 40
  %44 = getelementptr i8, ptr %0, i64 24
  %45 = getelementptr i8, ptr %44, i64 %.idx.i20
  %46 = load ptr, ptr %45, align 8
  %47 = icmp eq ptr %46, null
  br i1 %47, label %48, label %dsa_get_address.exit23, !prof !11

48:                                               ; preds = %check_for_freed_segments.exit.i19
  %49 = tail call fastcc ptr @get_segment_by_index(ptr noundef nonnull %0, i64 noundef %42)
  %.pre.i22 = load ptr, ptr %45, align 8
  br label %dsa_get_address.exit23

dsa_get_address.exit23:                           ; preds = %check_for_freed_segments.exit.i19, %48
  %50 = phi ptr [ %.pre.i22, %48 ], [ %46, %check_for_freed_segments.exit.i19 ]
  %51 = getelementptr inbounds nuw i8, ptr %50, i64 %43
  %52 = load i64, ptr %3, align 8
  %53 = getelementptr inbounds nuw i8, ptr %51, i64 16
  store i64 %52, ptr %53, align 8
  br label %82

54:                                               ; preds = %29
  %55 = load i64, ptr %1, align 8
  %.not.i24 = icmp ne i64 %55, 0
  tail call void @llvm.assume(i1 %.not.i24)
  tail call void asm sideeffect "", "~{memory},~{dirflag},~{fpsr},~{flags}"() #11, !srcloc !9
  %56 = load ptr, ptr %0, align 8
  %57 = getelementptr inbounds nuw i8, ptr %56, i64 6160
  %58 = load i64, ptr %57, align 8
  %59 = getelementptr inbounds nuw i8, ptr %0, i64 40984
  %60 = load i64, ptr %59, align 8
  %.not.i.i25 = icmp eq i64 %60, %58
  br i1 %.not.i.i25, label %check_for_freed_segments.exit.i26, label %61, !prof !10

61:                                               ; preds = %54
  %62 = getelementptr inbounds nuw i8, ptr %56, i64 6172
  %63 = tail call zeroext i1 @LWLockAcquire(ptr noundef nonnull %62, i32 noundef 0) #11
  tail call fastcc void @check_for_freed_segments_locked(ptr noundef nonnull %0)
  %64 = load ptr, ptr %0, align 8
  %65 = getelementptr inbounds nuw i8, ptr %64, i64 6172
  tail call void @LWLockRelease(ptr noundef nonnull %65) #11
  br label %check_for_freed_segments.exit.i26

check_for_freed_segments.exit.i26:                ; preds = %61, %54
  %66 = lshr i64 %55, 40
  %67 = and i64 %55, 1099511627775
  %.idx.i27 = mul nuw nsw i64 %66, 40
  %68 = getelementptr i8, ptr %0, i64 24
  %69 = getelementptr i8, ptr %68, i64 %.idx.i27
  %70 = load ptr, ptr %69, align 8
  %71 = icmp eq ptr %70, null
  br i1 %71, label %72, label %dsa_get_address.exit30, !prof !11

72:                                               ; preds = %check_for_freed_segments.exit.i26
  %73 = tail call fastcc ptr @get_segment_by_index(ptr noundef nonnull %0, i64 noundef %66)
  %.pre.i29 = load ptr, ptr %69, align 8
  br label %dsa_get_address.exit30

dsa_get_address.exit30:                           ; preds = %72, %check_for_freed_segments.exit.i26
  %74 = phi ptr [ %.pre.i29, %72 ], [ %70, %check_for_freed_segments.exit.i26 ]
  %75 = getelementptr inbounds nuw i8, ptr %74, i64 %67
  %76 = load i64, ptr %3, align 8
  %77 = getelementptr inbounds nuw i8, ptr %75, i64 16
  %78 = getelementptr inbounds nuw i8, ptr %1, i64 50
  %79 = load i16, ptr %78, align 2
  %80 = zext i16 %79 to i64
  %81 = getelementptr inbounds nuw [4 x i64], ptr %77, i64 0, i64 %80
  store i64 %76, ptr %81, align 8
  br label %82

82:                                               ; preds = %dsa_get_address.exit30, %dsa_get_address.exit23
  ret void
}